target datalayout = "e-m:e-p270:32:32-p271:32:32-p272:64:64-i64:64-i128:128-f80:128-n8:16:32:64-S128"
target triple = "x86_64-pc-linux-gnu"

%struct.CastContext = type { ptr, ptr, ptr, ptr, ptr, i32, i32 }
%struct.Expr_ = type { ptr, %union.SourceSpan, i16, %union.anon.29 }
%union.SourceSpan = type { i64 }
%union.anon.29 = type { %struct.ExprAnySwitch }
%struct.ExprAnySwitch = type { i8, %union.anon.31 }
%union.anon.31 = type { %struct.anon.32 }
%struct.anon.32 = type { ptr, %union.SourceSpan, ptr }
%struct.Type_ = type { i32, ptr, ptr, ptr, %union.anon.85, ptr, ptr, %union.anon.87 }
%union.anon.85 = type { ptr }
%union.anon.87 = type { %struct.TypeFunction }
%struct.TypeFunction = type { ptr, ptr, ptr }
%struct.TypeArray = type { ptr, i32 }
%struct.ExprConst = type { i16, %union.anon.38 }
%union.anon.38 = type { %struct.Int }
%struct.Int = type { %struct.Int128_, i32 }
%struct.Int128_ = type { i64, i64 }
%struct.VHeader_ = type { i32, i32, [0 x i8] }

; Function Attrs: nounwind uwtable
define internal zeroext i1 @rule_ulist_to_subarray(ptr noundef %0, i1 noundef zeroext %1, i1 noundef zeroext %2) #0 {
  %4 = alloca i32, align 4
  %5 = alloca ptr, align 8
  %6 = alloca ptr, align 8
  %7 = alloca i1, align 1
  %8 = alloca ptr, align 8
  %9 = alloca i8, align 1
  %10 = alloca i8, align 1
  %11 = alloca ptr, align 8
  %12 = alloca ptr, align 8
  %13 = alloca i32, align 4
  %14 = alloca i32, align 4
  %15 = alloca ptr, align 8
  store ptr %0, ptr %8, align 8
  %16 = zext i1 %1 to i8
  store i8 %16, ptr %9, align 1
  %17 = zext i1 %2 to i8
  store i8 %17, ptr %10, align 1
  %18 = load ptr, ptr %8, align 8
  %19 = getelementptr inbounds %struct.CastContext, ptr %18, i32 0, i32 4
  %20 = load ptr, ptr %19, align 8
  %21 = getelementptr inbounds %struct.Type_, ptr %20, i32 0, i32 7
  %22 = getelementptr inbounds %struct.TypeArray, ptr %21, i32 0, i32 0
  %23 = load ptr, ptr %22, align 8
  store ptr %23, ptr %11, align 8
  %24 = load ptr, ptr %8, align 8
  %25 = getelementptr inbounds %struct.CastContext, ptr %24, i32 0, i32 1
  %26 = load ptr, ptr %25, align 8
  %27 = getelementptr inbounds %struct.Expr_, ptr %26, i32 0, i32 3
  %28 = getelementptr inbounds %struct.ExprConst, ptr %27, i32 0, i32 1
  %29 = load ptr, ptr %28, align 8
  store ptr %29, ptr %12, align 8
  %30 = load ptr, ptr %12, align 8
  store ptr %30, ptr %5, align 8
  %31 = load ptr, ptr %5, align 8
  %32 = icmp ne ptr %31, null
  br i1 %32, label %34, label %33

33:                                               ; preds = %3
  store i32 0, ptr %4, align 4
  br label %39

34:                                               ; preds = %3
  %35 = load ptr, ptr %5, align 8
  store ptr %35, ptr %6, align 8
  %36 = load ptr, ptr %6, align 8
  %37 = getelementptr inbounds %struct.VHeader_, ptr %36, i64 -1
  %38 = load i32, ptr %37, align 4
  store i32 %38, ptr %4, align 4
  br label %39

39:                                               ; preds = %34, %33
  %40 = load i32, ptr %4, align 4
  store i32 %40, ptr %13, align 4
  store i32 0, ptr %14, align 4
  br label %41

41:                                               ; preds = %61, %39
  %42 = load i32, ptr %14, align 4
  %43 = load i32, ptr %13, align 4
  %44 = icmp ult i32 %42, %43
  br i1 %44, label %45, label %64

45:                                               ; preds = %41
  %46 = load ptr, ptr %12, align 8
  %47 = load i32, ptr %14, align 4
  %48 = zext i32 %47 to i64
  %49 = getelementptr inbounds ptr, ptr %46, i64 %48
  %50 = load ptr, ptr %49, align 8
  store ptr %50, ptr %15, align 8
  %51 = load ptr, ptr %8, align 8
  %52 = getelementptr inbounds %struct.CastContext, ptr %51, i32 0, i32 0
  %53 = load ptr, ptr %52, align 8
  %54 = load ptr, ptr %15, align 8
  %55 = load ptr, ptr %11, align 8
  %56 = load i8, ptr %10, align 1
  %57 = trunc i8 %56 to i1
  %58 = call zeroext i1 @may_cast(ptr noundef %53, ptr noundef %54, ptr noundef %55, i1 noundef zeroext false, i1 noundef zeroext %57)
  br i1 %58, label %60, label %59

59:                                               ; preds = %45
  store i1 false, ptr %7, align 1
  br label %67

60:                                               ; preds = %45
  br label %61

61:                                               ; preds = %60
  %62 = load i32, ptr %14, align 4
  %63 = add i32 %62, 1
  store i32 %63, ptr %14, align 4
  br label %41, !llvm.loop !10

64:                                               ; preds = %41
  br label %65

65:                                               ; preds = %64
  br label %66

66:                                               ; preds = %65
  store i1 true, ptr %7, align 1
  br label %67

67:                                               ; preds = %66, %59
  %68 = load i1, ptr %7, align 1
  ret i1 %68
}