; Function Attrs: nounwind uwtable
define internal zeroext i1 @rule_ulist_to_subarray(ptr nocapture noundef readonly %0, i1 zeroext %1, i1 noundef zeroext %2) #0 {
  %4 = getelementptr inbounds i8, ptr %0, i64 32
  %5 = load ptr, ptr %4, align 8
  %6 = getelementptr inbounds i8, ptr %5, i64 56
  %7 = load ptr, ptr %6, align 8
  %8 = getelementptr inbounds i8, ptr %0, i64 8
  %9 = load ptr, ptr %8, align 8
  %10 = getelementptr inbounds i8, ptr %9, i64 32
  %11 = load ptr, ptr %10, align 8
  %.not = icmp eq ptr %11, null
  br i1 %.not, label %._crit_edge, label %12

12:                                               ; preds = %3
  %13 = getelementptr inbounds i8, ptr %11, i64 -8
  %14 = load i32, ptr %13, align 4
  %15 = icmp eq i32 %14, 0
  br i1 %15, label %._crit_edge, label %.lr.ph.preheader

.lr.ph.preheader:                                 ; preds = %12
  %16 = zext i32 %14 to i64
  %17 = load ptr, ptr %11, align 8
  %18 = load ptr, ptr %0, align 8
  %19 = tail call zeroext i1 @may_cast(ptr noundef %18, ptr noundef %17, ptr noundef %7, i1 noundef zeroext false, i1 noundef zeroext %2)
  br i1 %19, label %.lr.ph24, label %._crit_edge

.lr.ph24:                                         ; preds = %.lr.ph.preheader, %.lr.ph
  %indvars.iv23 = phi i64 [ %indvars.iv.next, %.lr.ph ], [ 0, %.lr.ph.preheader ]
  %indvars.iv.next = add nuw nsw i64 %indvars.iv23, 1
  %exitcond = icmp eq i64 %indvars.iv.next, %16
  br i1 %exitcond, label %._crit_edge.loopexit, label %.lr.ph, !llvm.loop !10

.lr.ph:                                           ; preds = %.lr.ph24
  %20 = getelementptr inbounds ptr, ptr %11, i64 %indvars.iv.next
  %21 = load ptr, ptr %20, align 8
  %22 = load ptr, ptr %0, align 8
  %23 = tail call zeroext i1 @may_cast(ptr noundef %22, ptr noundef %21, ptr noundef %7, i1 noundef zeroext false, i1 noundef zeroext %2)
  br i1 %23, label %.lr.ph24, label %._crit_edge.loopexit, !llvm.loop !10

._crit_edge.loopexit:                             ; preds = %.lr.ph, %.lr.ph24
  %24 = icmp uge i64 %indvars.iv.next, %16
  br label %._crit_edge

._crit_edge:                                      ; preds = %._crit_edge.loopexit, %.lr.ph.preheader, %3, %12
  %.lcssa = phi i1 [ true, %12 ], [ true, %3 ], [ false, %.lr.ph.preheader ], [ %24, %._crit_edge.loopexit ]
  ret i1 %.lcssa
}